target datalayout = "e-m:e-p270:32:32-p271:32:32-p272:64:64-i64:64-i128:128-f80:128-n8:16:32:64-S128"
target triple = "x86_64-pc-linux-gnu"

@.str = private unnamed_addr constant [14 x i8] c"icudt77l-lang\00", align 1
@_ZN12_GLOBAL__N_16_kKeysE = internal constant [5 x i8] c"Keys\00", align 1

; Function Attrs: inlinehint mustprogress nounwind uwtable
define internal noundef signext i8 @_ZL9U_FAILURE10UErrorCode(i32 noundef %0) #2 {
  %2 = alloca i32, align 4
  store i32 %0, ptr %2, align 4, !tbaa !15
  %3 = load i32, ptr %2, align 4, !tbaa !15
  %4 = icmp sgt i32 %3, 0
  %5 = zext i1 %4 to i8
  ret i8 %5
}

; Function Attrs: mustprogress uwtable
define i32 @uloc_getDisplayKeyword_77(ptr noundef %0, ptr noundef %1, ptr noundef %2, i32 noundef %3, ptr noundef %4) #1 {
  %6 = alloca i32, align 4
  %7 = alloca ptr, align 8
  %8 = alloca ptr, align 8
  %9 = alloca ptr, align 8
  %10 = alloca i32, align 4
  %11 = alloca ptr, align 8
  store ptr %0, ptr %7, align 8, !tbaa !17
  store ptr %1, ptr %8, align 8, !tbaa !17
  store ptr %2, ptr %9, align 8, !tbaa !27
  store i32 %3, ptr %10, align 4, !tbaa !14
  store ptr %4, ptr %11, align 8, !tbaa !22
  %12 = load ptr, ptr %11, align 8, !tbaa !22
  %13 = icmp eq ptr %12, null
  br i1 %13, label %19, label %14

14:                                               ; preds = %5
  %15 = load ptr, ptr %11, align 8, !tbaa !22
  %16 = load i32, ptr %15, align 4, !tbaa !15
  %17 = call noundef signext i8 @_ZL9U_FAILURE10UErrorCode(i32 noundef %16)
  %18 = icmp ne i8 %17, 0
  br i1 %18, label %19, label %20

19:                                               ; preds = %14, %5
  store i32 0, ptr %6, align 4
  br label %39

20:                                               ; preds = %14
  %21 = load i32, ptr %10, align 4, !tbaa !14
  %22 = icmp slt i32 %21, 0
  br i1 %22, label %29, label %23

23:                                               ; preds = %20
  %24 = load i32, ptr %10, align 4, !tbaa !14
  %25 = icmp sgt i32 %24, 0
  br i1 %25, label %26, label %31

26:                                               ; preds = %23
  %27 = load ptr, ptr %9, align 8, !tbaa !27
  %28 = icmp eq ptr %27, null
  br i1 %28, label %29, label %31

29:                                               ; preds = %26, %20
  %30 = load ptr, ptr %11, align 8, !tbaa !22
  store i32 1, ptr %30, align 4, !tbaa !15
  store i32 0, ptr %6, align 4
  br label %39

31:                                               ; preds = %26, %23
  %32 = load ptr, ptr %8, align 8, !tbaa !17
  %33 = load ptr, ptr %7, align 8, !tbaa !17
  %34 = load ptr, ptr %7, align 8, !tbaa !17
  %35 = load ptr, ptr %9, align 8, !tbaa !27
  %36 = load i32, ptr %10, align 4, !tbaa !14
  %37 = load ptr, ptr %11, align 8, !tbaa !22
  %38 = call noundef i32 @_ZN12_GLOBAL__N_119_getStringOrCopyKeyEPKcS1_S1_S1_S1_S1_PDsiR10UErrorCode(ptr noundef @.str, ptr noundef %32, ptr noundef @_ZN12_GLOBAL__N_16_kKeysE, ptr noundef null, ptr noundef %33, ptr noundef %34, ptr noundef %35, i32 noundef %36, ptr noundef nonnull align 4 dereferenceable(4) %37)
  store i32 %38, ptr %6, align 4
  br label %39

39:                                               ; preds = %31, %29, %19
  %40 = load i32, ptr %6, align 4
  ret i32 %40
}