; Function Attrs: mustprogress uwtable
define noundef i32 @uloc_getDisplayKeyword_77(ptr noundef %0, ptr noundef %1, ptr noundef %2, i32 noundef %3, ptr noundef %4) local_unnamed_addr #1 {
  %6 = icmp eq ptr %4, null
  br i1 %6, label %18, label %7

7:                                                ; preds = %5
  %8 = load i32, ptr %4, align 4, !tbaa !13
  %9 = icmp slt i32 %8, 1
  br i1 %9, label %10, label %18

10:                                               ; preds = %7
  %11 = icmp slt i32 %3, 0
  br i1 %11, label %15, label %12

12:                                               ; preds = %10
  %13 = icmp ne i32 %3, 0
  %14 = icmp eq ptr %2, null
  %or.cond = and i1 %14, %13
  br i1 %or.cond, label %15, label %16

15:                                               ; preds = %12, %10
  store i32 1, ptr %4, align 4, !tbaa !13
  br label %18

16:                                               ; preds = %12
  %17 = tail call fastcc noundef i32 @_ZN12_GLOBAL__N_119_getStringOrCopyKeyEPKcS1_S1_S1_S1_S1_PDsiR10UErrorCode(ptr noundef nonnull @.str, ptr noundef %1, ptr noundef nonnull @_ZN12_GLOBAL__N_16_kKeysE, ptr noundef null, ptr noundef %0, ptr noundef %0, ptr noundef %2, i32 noundef %3, ptr noundef nonnull align 4 dereferenceable(4) %4)
  br label %18

18:                                               ; preds = %5, %7, %16, %15
  %.0 = phi i32 [ 0, %15 ], [ %17, %16 ], [ 0, %7 ], [ 0, %5 ]
  ret i32 %.0
}